; ModuleID = 'source-C-CXX/39/385.c'
source_filename = "source-C-CXX/39/385.c"
target datalayout = "e-m:e-p270:32:32-p271:32:32-p272:64:64-i64:64-f80:128-n8:16:32:64-S128"
target triple = "x86_64-pc-linux-gnu"

@.str = private unnamed_addr constant [16 x i8] c"%lf%lf%lf%lf%lf\00", align 1
@.str.2 = private unnamed_addr constant [6 x i8] c"%.4lf\00", align 1
@str = private unnamed_addr constant [14 x i8] c"Invalid input\00", align 1

; Function Attrs: nofree nounwind sspstrong uwtable
define dso_local i32 @main() local_unnamed_addr #0 {
  %1 = alloca double, align 8
  %2 = alloca double, align 8
  %3 = alloca double, align 8
  %4 = alloca double, align 8
  %5 = alloca double, align 8
  %6 = bitcast double* %1 to i8*
  call void @llvm.lifetime.start.p0i8(i64 8, i8* nonnull %6) #6
  %7 = bitcast double* %2 to i8*
  call void @llvm.lifetime.start.p0i8(i64 8, i8* nonnull %7) #6
  %8 = bitcast double* %3 to i8*
  call void @llvm.lifetime.start.p0i8(i64 8, i8* nonnull %8) #6
  %9 = bitcast double* %4 to i8*
  call void @llvm.lifetime.start.p0i8(i64 8, i8* nonnull %9) #6
  %10 = bitcast double* %5 to i8*
  call void @llvm.lifetime.start.p0i8(i64 8, i8* nonnull %10) #6
  %11 = call i32 (i8*, ...) @__isoc99_scanf(i8* getelementptr inbounds ([16 x i8], [16 x i8]* @.str, i64 0, i64 0), double* nonnull %1, double* nonnull %2, double* nonnull %3, double* nonnull %4, double* nonnull %5)
  %12 = load double, double* %1, align 8, !tbaa !5
  %13 = load double, double* %2, align 8, !tbaa !5
  %14 = fadd double %12, %13
  %15 = load double, double* %3, align 8, !tbaa !5
  %16 = fadd double %14, %15
  %17 = load double, double* %4, align 8, !tbaa !5
  %18 = fadd double %16, %17
  %19 = fmul double %18, 5.000000e-01
  %20 = load double, double* %5, align 8, !tbaa !5
  %21 = fdiv double %20, 3.600000e+02
  %22 = fmul double %21, 0x400921FB4D12D84A
  %23 = call double @cos(double %22) #6
  %24 = load double, double* %1, align 8, !tbaa !5
  %25 = fsub double %19, %24
  %26 = load double, double* %2, align 8, !tbaa !5
  %27 = fsub double %19, %26
  %28 = fmul double %25, %27
  %29 = load double, double* %3, align 8, !tbaa !5
  %30 = fsub double %19, %29
  %31 = fmul double %28, %30
  %32 = load double, double* %4, align 8, !tbaa !5
  %33 = fsub double %19, %32
  %34 = fmul double %31, %33
  %35 = fmul double %24, %26
  %36 = fmul double %35, %29
  %37 = fmul double %36, %32
  %38 = fmul double %23, %37
  %39 = fmul double %23, %38
  %40 = fsub double %34, %39
  %41 = fcmp olt double %40, 0.000000e+00
  br i1 %41, label %42, label %44

42:                                               ; preds = %0
  %43 = call i32 @puts(i8* nonnull dereferenceable(1) getelementptr inbounds ([14 x i8], [14 x i8]* @str, i64 0, i64 0))
  br label %65

44:                                               ; preds = %0
  %45 = load double, double* %5, align 8, !tbaa !5
  %46 = fadd double %24, %26
  %47 = fadd double %46, %29
  %48 = fadd double %47, %32
  %49 = fmul double %48, 5.000000e-01
  %50 = fdiv double %45, 3.600000e+02
  %51 = fmul double %50, 0x400921FB4D12D84A
  %52 = call double @cos(double %51) #6
  %53 = fsub double %49, %24
  %54 = fsub double %49, %26
  %55 = fmul double %53, %54
  %56 = fsub double %49, %29
  %57 = fmul double %56, %55
  %58 = fsub double %49, %32
  %59 = fmul double %58, %57
  %60 = fmul double %37, %52
  %61 = fmul double %52, %60
  %62 = fsub double %59, %61
  %63 = call double @sqrt(double %62) #6
  %64 = call i32 (i8*, ...) @printf(i8* nonnull dereferenceable(1) getelementptr inbounds ([6 x i8], [6 x i8]* @.str.2, i64 0, i64 0), double %63)
  br label %65

65:                                               ; preds = %44, %42
  call void @llvm.lifetime.end.p0i8(i64 8, i8* nonnull %10) #6
  call void @llvm.lifetime.end.p0i8(i64 8, i8* nonnull %9) #6
  call void @llvm.lifetime.end.p0i8(i64 8, i8* nonnull %8) #6
  call void @llvm.lifetime.end.p0i8(i64 8, i8* nonnull %7) #6
  call void @llvm.lifetime.end.p0i8(i64 8, i8* nonnull %6) #6
  ret i32 0
}

; Function Attrs: argmemonly mustprogress nofree nosync nounwind willreturn
declare void @llvm.lifetime.start.p0i8(i64 immarg, i8* nocapture) #1

; Function Attrs: nofree nounwind
declare noundef i32 @__isoc99_scanf(i8* nocapture noundef readonly, ...) local_unnamed_addr #2

; Function Attrs: mustprogress nofree nounwind willreturn
declare double @cos(double) local_unnamed_addr #3

; Function Attrs: nofree nounwind
declare noundef i32 @printf(i8* nocapture noundef readonly, ...) local_unnamed_addr #2

; Function Attrs: mustprogress nofree nounwind sspstrong uwtable willreturn
define dso_local double @mianji(double %0, double %1, double %2, double %3, double %4) local_unnamed_addr #4 {
  %6 = fadd double %0, %1
  %7 = fadd double %6, %2
  %8 = fadd double %7, %3
  %9 = fmul double %8, 5.000000e-01
  %10 = fdiv double %4, 3.600000e+02
  %11 = fmul double %10, 0x400921FB4D12D84A
  %12 = tail call double @cos(double %11) #6
  %13 = fsub double %9, %0
  %14 = fsub double %9, %1
  %15 = fmul double %13, %14
  %16 = fsub double %9, %2
  %17 = fmul double %16, %15
  %18 = fsub double %9, %3
  %19 = fmul double %18, %17
  %20 = fmul double %0, %1
  %21 = fmul double %20, %2
  %22 = fmul double %21, %3
  %23 = fmul double %22, %12
  %24 = fmul double %12, %23
  %25 = fsub double %19, %24
  %26 = tail call double @sqrt(double %25) #6
  ret double %26
}

; Function Attrs: argmemonly mustprogress nofree nosync nounwind willreturn
declare void @llvm.lifetime.end.p0i8(i64 immarg, i8* nocapture) #1

; Function Attrs: mustprogress nofree nounwind willreturn
declare double @sqrt(double) local_unnamed_addr #3

; Function Attrs: nofree nounwind
declare noundef i32 @puts(i8* nocapture noundef readonly) local_unnamed_addr #5


!llvm.module.flags = !{!0, !1, !2, !3}
!llvm.ident = !{!4}

!0 = !{i32 1, !"wchar_size", i32 4}
!1 = !{i32 7, !"PIC Level", i32 2}
!2 = !{i32 7, !"PIE Level", i32 2}
!3 = !{i32 7, !"uwtable", i32 1}
!4 = !{!"clang version 13.0.0"}
!5 = !{!6, !6, i64 0}
!6 = !{!"double", !7, i64 0}
!7 = !{!"omnipotent char", !8, i64 0}
!8 = !{!"Simple C/C++ TBAA"}
